target datalayout = "e-m:e-p270:32:32-p271:32:32-p272:64:64-i64:64-i128:128-f80:128-n8:16:32:64-S128"
target triple = "x86_64-pc-linux-gnu"

@CachedBasePath = internal global ptr null, align 8
@CachedUserFolders = internal global [11 x ptr] zeroinitializer, align 16

; Function Attrs: nounwind uwtable
define hidden void @SDL_QuitFilesystem() #0 {
  %1 = alloca i32, align 4
  %2 = load ptr, ptr @CachedBasePath, align 8
  %3 = icmp ne ptr %2, null
  br i1 %3, label %4, label %6

4:                                                ; preds = %0
  %5 = load ptr, ptr @CachedBasePath, align 8
  call void @SDL_free_REAL(ptr noundef %5)
  store ptr null, ptr @CachedBasePath, align 8
  br label %6

6:                                                ; preds = %4, %0
  call void @llvm.lifetime.start.p0(i64 4, ptr %1) #5
  store i32 0, ptr %1, align 4
  br label %7

7:                                                ; preds = %27, %6
  %8 = load i32, ptr %1, align 4
  %9 = sext i32 %8 to i64
  %10 = icmp ult i64 %9, 11
  br i1 %10, label %12, label %11

11:                                               ; preds = %7
  call void @llvm.lifetime.end.p0(i64 4, ptr %1) #5
  br label %30

12:                                               ; preds = %7
  %13 = load i32, ptr %1, align 4
  %14 = sext i32 %13 to i64
  %15 = getelementptr inbounds [11 x ptr], ptr @CachedUserFolders, i64 0, i64 %14
  %16 = load ptr, ptr %15, align 8
  %17 = icmp ne ptr %16, null
  br i1 %17, label %18, label %26

18:                                               ; preds = %12
  %19 = load i32, ptr %1, align 4
  %20 = sext i32 %19 to i64
  %21 = getelementptr inbounds [11 x ptr], ptr @CachedUserFolders, i64 0, i64 %20
  %22 = load ptr, ptr %21, align 8
  call void @SDL_free_REAL(ptr noundef %22)
  %23 = load i32, ptr %1, align 4
  %24 = sext i32 %23 to i64
  %25 = getelementptr inbounds [11 x ptr], ptr @CachedUserFolders, i64 0, i64 %24
  store ptr null, ptr %25, align 8
  br label %26

26:                                               ; preds = %18, %12
  br label %27

27:                                               ; preds = %26
  %28 = load i32, ptr %1, align 4
  %29 = add nsw i32 %28, 1
  store i32 %29, ptr %1, align 4
  br label %7, !llvm.loop !13

30:                                               ; preds = %11
  ret void
}