; Function Attrs: nounwind uwtable
define hidden void @SDL_QuitFilesystem() local_unnamed_addr #0 {
  %1 = load ptr, ptr @CachedBasePath, align 8
  %.not = icmp eq ptr %1, null
  br i1 %.not, label %.preheader, label %2

.preheader:                                       ; preds = %2, %0
  br label %4

2:                                                ; preds = %0
  tail call void @SDL_free_REAL(ptr noundef nonnull %1) #8
  store ptr null, ptr @CachedBasePath, align 8
  br label %.preheader

3:                                                ; preds = %8
  ret void

4:                                                ; preds = %.preheader, %8
  %indvars.iv = phi i64 [ %indvars.iv.next, %8 ], [ 0, %.preheader ]
  %5 = getelementptr inbounds nuw [11 x ptr], ptr @CachedUserFolders, i64 0, i64 %indvars.iv
  %6 = load ptr, ptr %5, align 8
  %.not8 = icmp eq ptr %6, null
  br i1 %.not8, label %8, label %7

7:                                                ; preds = %4
  tail call void @SDL_free_REAL(ptr noundef nonnull %6) #8
  store ptr null, ptr %5, align 8
  br label %8

8:                                                ; preds = %4, %7
  %indvars.iv.next = add nuw nsw i64 %indvars.iv, 1
  %exitcond.not = icmp eq i64 %indvars.iv.next, 11
  br i1 %exitcond.not, label %3, label %4, !llvm.loop !13
}